; Function Attrs: nounwind uwtable
define i32 @Abc_NodeMffcLabelAig(ptr noundef readonly captures(none) %0) local_unnamed_addr #0 {
  %2 = getelementptr i8, ptr %0, i64 28
  %.val = load i32, ptr %2, align 4
  %3 = icmp eq i32 %.val, 0
  br i1 %3, label %7, label %4

4:                                                ; preds = %1
  %5 = tail call fastcc i32 @Abc_NodeRefDeref(ptr noundef nonnull %0, i32 noundef 0, i32 noundef 1)
  %6 = tail call fastcc i32 @Abc_NodeRefDeref(ptr noundef nonnull %0, i32 noundef 1, i32 noundef 0)
  br label %7

7:                                                ; preds = %1, %4
  %.0 = phi i32 [ %5, %4 ], [ 0, %1 ]
  ret i32 %.0
}